target datalayout = "e-m:e-p270:32:32-p271:32:32-p272:64:64-i64:64-i128:128-f80:128-n8:16:32:64-S128"
target triple = "x86_64-pc-linux-gnu"

%"class.std::__cxx11::basic_string" = type { %"struct.std::__cxx11::basic_string<char>::_Alloc_hider", i64, %union.anon }
%"struct.std::__cxx11::basic_string<char>::_Alloc_hider" = type { ptr }
%union.anon = type { i64, [8 x i8] }
%"class.std::allocator" = type { i8 }

@_ZTISt9exception = external constant ptr
@.str.25 = private unnamed_addr constant [30 x i8] c"Cannot instantiate source_crs\00", align 1
@.str.26 = private unnamed_addr constant [30 x i8] c"Cannot instantiate target_crs\00", align 1

; Function Attrs: mustprogress uwtable
define ptr @proj_create_crs_to_crs(ptr noundef %0, ptr noundef %1, ptr noundef %2, ptr noundef %3) #1 personality ptr @__gxx_personality_v0 {
  %5 = alloca ptr, align 8
  %6 = alloca ptr, align 8
  %7 = alloca ptr, align 8
  %8 = alloca ptr, align 8
  %9 = alloca ptr, align 8
  %10 = alloca ptr, align 8
  %11 = alloca ptr, align 8
  %12 = alloca %"class.std::__cxx11::basic_string", align 8
  %13 = alloca %"class.std::__cxx11::basic_string", align 8
  %14 = alloca %"class.std::allocator", align 1
  %15 = alloca ptr, align 8
  %16 = alloca i32, align 4
  %17 = alloca %"class.std::__cxx11::basic_string", align 8
  %18 = alloca %"class.std::__cxx11::basic_string", align 8
  %19 = alloca %"class.std::allocator", align 1
  %20 = alloca i32, align 4
  %21 = alloca ptr, align 8
  %22 = alloca ptr, align 8
  store ptr %0, ptr %6, align 8
  store ptr %1, ptr %7, align 8
  store ptr %2, ptr %8, align 8
  store ptr %3, ptr %9, align 8
  %23 = load ptr, ptr %6, align 8
  %24 = icmp ne ptr %23, null
  br i1 %24, label %27, label %25

25:                                               ; preds = %4
  %26 = call noundef ptr @_Z18pj_get_default_ctxv()
  store ptr %26, ptr %6, align 8
  br label %27

27:                                               ; preds = %25, %4
  %28 = load ptr, ptr %7, align 8
  call void @_ZNSaIcEC1Ev(ptr noundef nonnull align 1 dereferenceable(1) %14) #19
  invoke void @_ZNSt7__cxx1112basic_stringIcSt11char_traitsIcESaIcEEC1EPKcRKS3_(ptr noundef nonnull align 8 dereferenceable(32) %13, ptr noundef %28, ptr noundef nonnull align 1 dereferenceable(1) %14)
          to label %29 unwind label %43

29:                                               ; preds = %27
  invoke void @_Z25pj_add_type_crs_if_neededRKNSt7__cxx1112basic_stringIcSt11char_traitsIcESaIcEEE(ptr dead_on_unwind writable sret(%"class.std::__cxx11::basic_string") align 8 %12, ptr noundef nonnull align 8 dereferenceable(32) %13)
          to label %30 unwind label %47

30:                                               ; preds = %29
  call void @_ZNSt7__cxx1112basic_stringIcSt11char_traitsIcESaIcEED1Ev(ptr noundef nonnull align 8 dereferenceable(32) %13) #19
  call void @_ZNSaIcED1Ev(ptr noundef nonnull align 1 dereferenceable(1) %14) #19
  %31 = load ptr, ptr %8, align 8
  call void @_ZNSaIcEC1Ev(ptr noundef nonnull align 1 dereferenceable(1) %19) #19
  invoke void @_ZNSt7__cxx1112basic_stringIcSt11char_traitsIcESaIcEEC1EPKcRKS3_(ptr noundef nonnull align 8 dereferenceable(32) %18, ptr noundef %31, ptr noundef nonnull align 1 dereferenceable(1) %19)
          to label %32 unwind label %52

32:                                               ; preds = %30
  invoke void @_Z25pj_add_type_crs_if_neededRKNSt7__cxx1112basic_stringIcSt11char_traitsIcESaIcEEE(ptr dead_on_unwind writable sret(%"class.std::__cxx11::basic_string") align 8 %17, ptr noundef nonnull align 8 dereferenceable(32) %18)
          to label %33 unwind label %56

33:                                               ; preds = %32
  call void @_ZNSt7__cxx1112basic_stringIcSt11char_traitsIcESaIcEED1Ev(ptr noundef nonnull align 8 dereferenceable(32) %18) #19
  call void @_ZNSaIcED1Ev(ptr noundef nonnull align 1 dereferenceable(1) %19) #19
  %34 = load ptr, ptr %6, align 8
  %35 = call noundef ptr @_ZNKSt7__cxx1112basic_stringIcSt11char_traitsIcESaIcEE5c_strEv(ptr noundef nonnull align 8 dereferenceable(32) %12) #19
  %36 = invoke ptr @proj_create(ptr noundef %34, ptr noundef %35)
          to label %37 unwind label %61

37:                                               ; preds = %33
  store ptr %36, ptr %10, align 8
  %38 = load ptr, ptr %10, align 8
  %39 = icmp ne ptr %38, null
  br i1 %39, label %65, label %40

40:                                               ; preds = %37
  %41 = load ptr, ptr %6, align 8
  invoke void (ptr, ptr, ...) @_Z22proj_context_log_debugP6pj_ctxPKcz(ptr noundef %41, ptr noundef @.str.25)
          to label %42 unwind label %61

42:                                               ; preds = %40
  store ptr null, ptr %5, align 8
  store i32 1, ptr %20, align 4
  br label %79

43:                                               ; preds = %27
  %44 = landingpad { ptr, i32 }
          cleanup
          catch ptr @_ZTISt9exception
  %45 = extractvalue { ptr, i32 } %44, 0
  store ptr %45, ptr %15, align 8
  %46 = extractvalue { ptr, i32 } %44, 1
  store i32 %46, ptr %16, align 4
  br label %51

47:                                               ; preds = %29
  %48 = landingpad { ptr, i32 }
          cleanup
          catch ptr @_ZTISt9exception
  %49 = extractvalue { ptr, i32 } %48, 0
  store ptr %49, ptr %15, align 8
  %50 = extractvalue { ptr, i32 } %48, 1
  store i32 %50, ptr %16, align 4
  call void @_ZNSt7__cxx1112basic_stringIcSt11char_traitsIcESaIcEED1Ev(ptr noundef nonnull align 8 dereferenceable(32) %13) #19
  br label %51

51:                                               ; preds = %47, %43
  call void @_ZNSaIcED1Ev(ptr noundef nonnull align 1 dereferenceable(1) %14) #19
  br label %83

52:                                               ; preds = %30
  %53 = landingpad { ptr, i32 }
          cleanup
          catch ptr @_ZTISt9exception
  %54 = extractvalue { ptr, i32 } %53, 0
  store ptr %54, ptr %15, align 8
  %55 = extractvalue { ptr, i32 } %53, 1
  store i32 %55, ptr %16, align 4
  br label %60

56:                                               ; preds = %32
  %57 = landingpad { ptr, i32 }
          cleanup
          catch ptr @_ZTISt9exception
  %58 = extractvalue { ptr, i32 } %57, 0
  store ptr %58, ptr %15, align 8
  %59 = extractvalue { ptr, i32 } %57, 1
  store i32 %59, ptr %16, align 4
  call void @_ZNSt7__cxx1112basic_stringIcSt11char_traitsIcESaIcEED1Ev(ptr noundef nonnull align 8 dereferenceable(32) %18) #19
  br label %60

60:                                               ; preds = %56, %52
  call void @_ZNSaIcED1Ev(ptr noundef nonnull align 1 dereferenceable(1) %19) #19
  br label %82

61:                                               ; preds = %74, %72, %65, %40, %33
  %62 = landingpad { ptr, i32 }
          cleanup
          catch ptr @_ZTISt9exception
  %63 = extractvalue { ptr, i32 } %62, 0
  store ptr %63, ptr %15, align 8
  %64 = extractvalue { ptr, i32 } %62, 1
  store i32 %64, ptr %16, align 4
  call void @_ZNSt7__cxx1112basic_stringIcSt11char_traitsIcESaIcEED1Ev(ptr noundef nonnull align 8 dereferenceable(32) %17) #19
  br label %82

65:                                               ; preds = %37
  %66 = load ptr, ptr %6, align 8
  %67 = call noundef ptr @_ZNKSt7__cxx1112basic_stringIcSt11char_traitsIcESaIcEE5c_strEv(ptr noundef nonnull align 8 dereferenceable(32) %17) #19
  %68 = invoke ptr @proj_create(ptr noundef %66, ptr noundef %67)
          to label %69 unwind label %61

69:                                               ; preds = %65
  store ptr %68, ptr %11, align 8
  %70 = load ptr, ptr %11, align 8
  %71 = icmp ne ptr %70, null
  br i1 %71, label %78, label %72

72:                                               ; preds = %69
  %73 = load ptr, ptr %6, align 8
  invoke void (ptr, ptr, ...) @_Z22proj_context_log_debugP6pj_ctxPKcz(ptr noundef %73, ptr noundef @.str.26)
          to label %74 unwind label %61

74:                                               ; preds = %72
  %75 = load ptr, ptr %10, align 8
  %76 = invoke ptr @proj_destroy(ptr noundef %75)
          to label %77 unwind label %61

77:                                               ; preds = %74
  store ptr null, ptr %5, align 8
  store i32 1, ptr %20, align 4
  br label %79

78:                                               ; preds = %69
  store i32 0, ptr %20, align 4
  br label %79

79:                                               ; preds = %78, %77, %42
  call void @_ZNSt7__cxx1112basic_stringIcSt11char_traitsIcESaIcEED1Ev(ptr noundef nonnull align 8 dereferenceable(32) %17) #19
  call void @_ZNSt7__cxx1112basic_stringIcSt11char_traitsIcESaIcEED1Ev(ptr noundef nonnull align 8 dereferenceable(32) %12) #19
  %80 = load i32, ptr %20, align 4
  switch i32 %80, label %108 [
    i32 0, label %81
    i32 1, label %101
  ]

81:                                               ; preds = %79
  br label %90

82:                                               ; preds = %61, %60
  call void @_ZNSt7__cxx1112basic_stringIcSt11char_traitsIcESaIcEED1Ev(ptr noundef nonnull align 8 dereferenceable(32) %12) #19
  br label %83

83:                                               ; preds = %82, %51
  %84 = load i32, ptr %16, align 4
  %85 = call i32 @llvm.eh.typeid.for(ptr @_ZTISt9exception) #19
  %86 = icmp eq i32 %84, %85
  br i1 %86, label %87, label %103

87:                                               ; preds = %83
  %88 = load ptr, ptr %15, align 8
  %89 = call ptr @__cxa_begin_catch(ptr %88) #19
  store ptr %89, ptr %21, align 8
  store ptr null, ptr %5, align 8
  store i32 1, ptr %20, align 4
  call void @__cxa_end_catch()
  br label %101

90:                                               ; preds = %81
  %91 = load ptr, ptr %6, align 8
  %92 = load ptr, ptr %10, align 8
  %93 = load ptr, ptr %11, align 8
  %94 = load ptr, ptr %9, align 8
  %95 = call ptr @proj_create_crs_to_crs_from_pj(ptr noundef %91, ptr noundef %92, ptr noundef %93, ptr noundef %94, ptr noundef null)
  store ptr %95, ptr %22, align 8
  %96 = load ptr, ptr %10, align 8
  %97 = call ptr @proj_destroy(ptr noundef %96)
  %98 = load ptr, ptr %11, align 8
  %99 = call ptr @proj_destroy(ptr noundef %98)
  %100 = load ptr, ptr %22, align 8
  store ptr %100, ptr %5, align 8
  br label %101

101:                                              ; preds = %90, %87, %79
  %102 = load ptr, ptr %5, align 8
  ret ptr %102

103:                                              ; preds = %83
  %104 = load ptr, ptr %15, align 8
  %105 = load i32, ptr %16, align 4
  %106 = insertvalue { ptr, i32 } poison, ptr %104, 0
  %107 = insertvalue { ptr, i32 } %106, i32 %105, 1
  resume { ptr, i32 } %107

108:                                              ; preds = %79
  unreachable
}