; Function Attrs: mustprogress uwtable
define ptr @proj_create_crs_to_crs(ptr noundef %0, ptr noundef %1, ptr noundef %2, ptr noundef %3) local_unnamed_addr #1 personality ptr @__gxx_personality_v0 {
  %5 = alloca %"class.std::__cxx11::basic_string", align 8
  %6 = alloca %"class.std::__cxx11::basic_string", align 8
  %7 = alloca %"class.std::allocator", align 1
  %8 = alloca %"class.std::__cxx11::basic_string", align 8
  %9 = alloca %"class.std::__cxx11::basic_string", align 8
  %10 = alloca %"class.std::allocator", align 1
  %.not = icmp eq ptr %0, null
  br i1 %.not, label %11, label %13

11:                                               ; preds = %4
  %12 = tail call noundef ptr @_Z18pj_get_default_ctxv()
  br label %13

13:                                               ; preds = %11, %4
  %.022 = phi ptr [ %0, %4 ], [ %12, %11 ]
  call void @_ZNSaIcEC1Ev(ptr noundef nonnull align 1 dereferenceable(1) %7) #33
  invoke void @_ZNSt7__cxx1112basic_stringIcSt11char_traitsIcESaIcEEC1EPKcRKS3_(ptr noundef nonnull align 8 dereferenceable(32) %6, ptr noundef %1, ptr noundef nonnull align 1 dereferenceable(1) %7)
          to label %14 unwind label %22

14:                                               ; preds = %13
  invoke void @_Z25pj_add_type_crs_if_neededRKNSt7__cxx1112basic_stringIcSt11char_traitsIcESaIcEEE(ptr dead_on_unwind nonnull writable sret(%"class.std::__cxx11::basic_string") align 8 %5, ptr noundef nonnull align 8 dereferenceable(32) %6)
          to label %15 unwind label %24

15:                                               ; preds = %14
  call void @_ZNSt7__cxx1112basic_stringIcSt11char_traitsIcESaIcEED1Ev(ptr noundef nonnull align 8 dereferenceable(32) %6) #33
  call void @_ZNSaIcED1Ev(ptr noundef nonnull align 1 dereferenceable(1) %7) #33
  call void @_ZNSaIcEC1Ev(ptr noundef nonnull align 1 dereferenceable(1) %10) #33
  invoke void @_ZNSt7__cxx1112basic_stringIcSt11char_traitsIcESaIcEEC1EPKcRKS3_(ptr noundef nonnull align 8 dereferenceable(32) %9, ptr noundef %2, ptr noundef nonnull align 1 dereferenceable(1) %10)
          to label %16 unwind label %27

16:                                               ; preds = %15
  invoke void @_Z25pj_add_type_crs_if_neededRKNSt7__cxx1112basic_stringIcSt11char_traitsIcESaIcEEE(ptr dead_on_unwind nonnull writable sret(%"class.std::__cxx11::basic_string") align 8 %8, ptr noundef nonnull align 8 dereferenceable(32) %9)
          to label %17 unwind label %29

17:                                               ; preds = %16
  call void @_ZNSt7__cxx1112basic_stringIcSt11char_traitsIcESaIcEED1Ev(ptr noundef nonnull align 8 dereferenceable(32) %9) #33
  call void @_ZNSaIcED1Ev(ptr noundef nonnull align 1 dereferenceable(1) %10) #33
  %18 = call noundef ptr @_ZNKSt7__cxx1112basic_stringIcSt11char_traitsIcESaIcEE5c_strEv(ptr noundef nonnull align 8 dereferenceable(32) %5) #33
  %19 = invoke ptr @proj_create(ptr noundef %.022, ptr noundef %18)
          to label %20 unwind label %32

20:                                               ; preds = %17
  %.not37 = icmp eq ptr %19, null
  br i1 %.not37, label %21, label %34

21:                                               ; preds = %20
  invoke void (ptr, ptr, ...) @_Z22proj_context_log_debugP6pj_ctxPKcz(ptr noundef %.022, ptr noundef nonnull @.str.25)
          to label %41 unwind label %32

22:                                               ; preds = %13
  %23 = landingpad { ptr, i32 }
          cleanup
          catch ptr @_ZTISt9exception
  br label %26

24:                                               ; preds = %14
  %25 = landingpad { ptr, i32 }
          cleanup
          catch ptr @_ZTISt9exception
  call void @_ZNSt7__cxx1112basic_stringIcSt11char_traitsIcESaIcEED1Ev(ptr noundef nonnull align 8 dereferenceable(32) %6) #33
  br label %26

26:                                               ; preds = %24, %22
  %.pn = phi { ptr, i32 } [ %25, %24 ], [ %23, %22 ]
  call void @_ZNSaIcED1Ev(ptr noundef nonnull align 1 dereferenceable(1) %7) #33
  br label %43

27:                                               ; preds = %15
  %28 = landingpad { ptr, i32 }
          cleanup
          catch ptr @_ZTISt9exception
  br label %31

29:                                               ; preds = %16
  %30 = landingpad { ptr, i32 }
          cleanup
          catch ptr @_ZTISt9exception
  call void @_ZNSt7__cxx1112basic_stringIcSt11char_traitsIcESaIcEED1Ev(ptr noundef nonnull align 8 dereferenceable(32) %9) #33
  br label %31

31:                                               ; preds = %29, %27
  %.pn35 = phi { ptr, i32 } [ %30, %29 ], [ %28, %27 ]
  call void @_ZNSaIcED1Ev(ptr noundef nonnull align 1 dereferenceable(1) %10) #33
  br label %42

32:                                               ; preds = %39, %38, %34, %21, %17
  %33 = landingpad { ptr, i32 }
          cleanup
          catch ptr @_ZTISt9exception
  call void @_ZNSt7__cxx1112basic_stringIcSt11char_traitsIcESaIcEED1Ev(ptr noundef nonnull align 8 dereferenceable(32) %8) #33
  br label %42

34:                                               ; preds = %20
  %35 = call noundef ptr @_ZNKSt7__cxx1112basic_stringIcSt11char_traitsIcESaIcEE5c_strEv(ptr noundef nonnull align 8 dereferenceable(32) %8) #33
  %36 = invoke ptr @proj_create(ptr noundef %.022, ptr noundef %35)
          to label %37 unwind label %32

37:                                               ; preds = %34
  %.not38 = icmp eq ptr %36, null
  br i1 %.not38, label %38, label %41

38:                                               ; preds = %37
  invoke void (ptr, ptr, ...) @_Z22proj_context_log_debugP6pj_ctxPKcz(ptr noundef %.022, ptr noundef nonnull @.str.26)
          to label %39 unwind label %32

39:                                               ; preds = %38
  %40 = invoke ptr @proj_destroy(ptr noundef nonnull %19)
          to label %41 unwind label %32

41:                                               ; preds = %37, %39, %21
  %.030 = phi ptr [ undef, %21 ], [ null, %39 ], [ %36, %37 ]
  %switch = phi i1 [ false, %21 ], [ false, %39 ], [ true, %37 ]
  call void @_ZNSt7__cxx1112basic_stringIcSt11char_traitsIcESaIcEED1Ev(ptr noundef nonnull align 8 dereferenceable(32) %8) #33
  call void @_ZNSt7__cxx1112basic_stringIcSt11char_traitsIcESaIcEED1Ev(ptr noundef nonnull align 8 dereferenceable(32) %5) #33
  br i1 %switch, label %48, label %52

42:                                               ; preds = %32, %31
  %.pn39 = phi { ptr, i32 } [ %33, %32 ], [ %.pn35, %31 ]
  call void @_ZNSt7__cxx1112basic_stringIcSt11char_traitsIcESaIcEED1Ev(ptr noundef nonnull align 8 dereferenceable(32) %5) #33
  br label %43

43:                                               ; preds = %42, %26
  %.pn39.pn = phi { ptr, i32 } [ %.pn39, %42 ], [ %.pn, %26 ]
  %.3 = extractvalue { ptr, i32 } %.pn39.pn, 1
  %44 = call i32 @llvm.eh.typeid.for(ptr nonnull @_ZTISt9exception) #33
  %45 = icmp eq i32 %.3, %44
  br i1 %45, label %46, label %53

46:                                               ; preds = %43
  %.329 = extractvalue { ptr, i32 } %.pn39.pn, 0
  %47 = call ptr @__cxa_begin_catch(ptr %.329) #33
  call void @__cxa_end_catch()
  br label %52

48:                                               ; preds = %41
  %49 = call ptr @proj_create_crs_to_crs_from_pj(ptr noundef %.022, ptr noundef %19, ptr noundef %.030, ptr noundef %3, ptr noundef null)
  %50 = call ptr @proj_destroy(ptr noundef %19)
  %51 = call ptr @proj_destroy(ptr noundef %.030)
  br label %52

52:                                               ; preds = %41, %48, %46
  %.1 = phi ptr [ null, %41 ], [ %49, %48 ], [ null, %46 ]
  ret ptr %.1

53:                                               ; preds = %43
  resume { ptr, i32 } %.pn39.pn
}